target datalayout = "e-m:e-p270:32:32-p271:32:32-p272:64:64-i64:64-i128:128-f80:128-n8:16:32:64-S128"
target triple = "x86_64-pc-linux-gnu"

%"class.boost::urls::authority_view" = type { ptr, %"struct.boost::urls::detail::url_impl" }
%"struct.boost::urls::detail::url_impl" = type <{ ptr, [8 x i64], [7 x i64], i64, i64, [16 x i8], i16, [2 x i8], i32, i16, i8, [5 x i8] }>
%"class.boost::core::basic_string_view" = type { ptr, i64 }
%"class.boost::urls::pct_string_view" = type { %"class.boost::urls::grammar::string_view_base", i64 }
%"class.boost::urls::grammar::string_view_base" = type { %"class.boost::core::basic_string_view" }

; Function Attrs: mustprogress nounwind uwtable
define void @_ZNK5boost4urls14authority_view21encoded_host_and_portEv(ptr dead_on_unwind noalias writable sret(%"class.boost::urls::pct_string_view") align 8 %0, ptr noundef nonnull align 8 dereferenceable(184) %1) #2 align 2 personality ptr @__gxx_personality_v0 {
  %3 = alloca ptr, align 8
  %4 = alloca %"class.boost::core::basic_string_view", align 8
  store ptr %1, ptr %3, align 8, !tbaa !7
  %5 = load ptr, ptr %3, align 8
  %6 = getelementptr inbounds nuw %"class.boost::urls::authority_view", ptr %5, i32 0, i32 1
  %7 = call { ptr, i64 } @_ZNK5boost4urls6detail8url_impl3getEii(ptr noundef nonnull align 8 dereferenceable(171) %6, i32 noundef 2, i32 noundef 7) #19
  %8 = getelementptr inbounds nuw { ptr, i64 }, ptr %4, i32 0, i32 0
  %9 = extractvalue { ptr, i64 } %7, 0
  store ptr %9, ptr %8, align 8
  %10 = getelementptr inbounds nuw { ptr, i64 }, ptr %4, i32 0, i32 1
  %11 = extractvalue { ptr, i64 } %7, 1
  store i64 %11, ptr %10, align 8
  %12 = getelementptr inbounds nuw { ptr, i64 }, ptr %4, i32 0, i32 0
  %13 = load ptr, ptr %12, align 8
  %14 = getelementptr inbounds nuw { ptr, i64 }, ptr %4, i32 0, i32 1
  %15 = load i64, ptr %14, align 8
  invoke void @_ZN5boost4urls15pct_string_viewC1ENS_4core17basic_string_viewIcEE(ptr noundef nonnull align 8 dereferenceable(24) %0, ptr %13, i64 %15)
          to label %16 unwind label %17

16:                                               ; preds = %2
  ret void

17:                                               ; preds = %2
  %18 = landingpad { ptr, i32 }
          catch ptr null
  %19 = extractvalue { ptr, i32 } %18, 0
  call void @__clang_call_terminate(ptr %19) #20
  unreachable
}