; Function Attrs: mustprogress nounwind uwtable
define void @_ZNK5boost4urls14authority_view21encoded_host_and_portEv(ptr dead_on_unwind noalias writable sret(%"class.boost::urls::pct_string_view") align 8 %0, ptr noundef nonnull align 8 dereferenceable(184) %1) local_unnamed_addr #3 align 2 personality ptr @__gxx_personality_v0 {
  %3 = getelementptr inbounds nuw i8, ptr %1, i64 8
  %4 = tail call { ptr, i64 } @_ZNK5boost4urls6detail8url_impl3getEii(ptr noundef nonnull align 8 dereferenceable(171) %3, i32 noundef 2, i32 noundef 7) #28
  %5 = extractvalue { ptr, i64 } %4, 0
  %6 = extractvalue { ptr, i64 } %4, 1
  invoke void @_ZN5boost4urls15pct_string_viewC1ENS_4core17basic_string_viewIcEE(ptr noundef nonnull align 8 dereferenceable(24) %0, ptr %5, i64 %6)
          to label %7 unwind label %8

7:                                                ; preds = %2
  ret void

8:                                                ; preds = %2
  %9 = landingpad { ptr, i32 }
          catch ptr null
  %10 = extractvalue { ptr, i32 } %9, 0
  tail call void @__clang_call_terminate(ptr %10) #29
  unreachable
}